target datalayout = "e-m:e-p270:32:32-p271:32:32-p272:64:64-i64:64-i128:128-f80:128-n8:16:32:64-S128"
target triple = "x86_64-pc-linux-gnu"

%struct.SRBRoot = type { ptr, ptr, i32, i32, i8, i8, i8, ptr, ptr, i32, i32, i32, i32, i32, %"class.icu_77::UnicodeString", i32, ptr, i32, i32, i32, ptr }
%"class.icu_77::UnicodeString" = type { %"class.icu_77::Replaceable", %"union.icu_77::UnicodeString::StackBufferOrFields" }
%"class.icu_77::Replaceable" = type { %"class.icu_77::UObject" }
%"class.icu_77::UObject" = type { ptr }
%"union.icu_77::UnicodeString::StackBufferOrFields" = type { %struct.anon.0, [32 x i8] }
%struct.anon.0 = type { i16, i32, i32, ptr }

; Function Attrs: mustprogress nounwind uwtable
define dso_local noundef ptr @_ZNK7SRBRoot11getKeyBytesEPi(ptr noundef nonnull align 8 dereferenceable(176) %0, ptr noundef %1) #4 align 2 {
  %3 = alloca ptr, align 8
  %4 = alloca ptr, align 8
  store ptr %0, ptr %3, align 8, !tbaa !39
  store ptr %1, ptr %4, align 8, !tbaa !96
  %5 = load ptr, ptr %3, align 8
  %6 = getelementptr inbounds nuw %struct.SRBRoot, ptr %5, i32 0, i32 10
  %7 = load i32, ptr %6, align 4, !tbaa !139
  %8 = getelementptr inbounds nuw %struct.SRBRoot, ptr %5, i32 0, i32 9
  %9 = load i32, ptr %8, align 8, !tbaa !141
  %10 = sub nsw i32 %7, %9
  %11 = load ptr, ptr %4, align 8, !tbaa !96
  store i32 %10, ptr %11, align 4, !tbaa !23
  %12 = getelementptr inbounds nuw %struct.SRBRoot, ptr %5, i32 0, i32 7
  %13 = load ptr, ptr %12, align 8, !tbaa !64
  %14 = getelementptr inbounds nuw %struct.SRBRoot, ptr %5, i32 0, i32 9
  %15 = load i32, ptr %14, align 8, !tbaa !141
  %16 = sext i32 %15 to i64
  %17 = getelementptr inbounds i8, ptr %13, i64 %16
  ret ptr %17
}