; Function Attrs: mustprogress nofree norecurse nosync nounwind willreturn memory(argmem: readwrite) uwtable
define dso_local noundef ptr @_ZNK7SRBRoot11getKeyBytesEPi(ptr noundef nonnull readonly align 8 captures(none) dereferenceable(176) %0, ptr noundef writeonly captures(none) initializes((0, 4)) %1) local_unnamed_addr #14 align 2 {
  %3 = getelementptr inbounds nuw i8, ptr %0, i64 52
  %4 = load i32, ptr %3, align 4, !tbaa !24
  %5 = getelementptr inbounds nuw i8, ptr %0, i64 48
  %6 = load i32, ptr %5, align 8, !tbaa !101
  %7 = sub nsw i32 %4, %6
  store i32 %7, ptr %1, align 4, !tbaa !7
  %8 = getelementptr inbounds nuw i8, ptr %0, i64 32
  %9 = load ptr, ptr %8, align 8, !tbaa !34
  %10 = load i32, ptr %5, align 8, !tbaa !101
  %11 = sext i32 %10 to i64
  %12 = getelementptr inbounds i8, ptr %9, i64 %11
  ret ptr %12
}